target datalayout = "e-m:e-p270:32:32-p271:32:32-p272:64:64-i64:64-i128:128-f80:128-n8:16:32:64-S128"
target triple = "x86_64-pc-linux-gnu"

%struct.Amap_Pin_t_ = type { ptr, i32, double, double, double, double, double, double, double }

@__const.Amap_LibWritePin.pPhaseNames = private unnamed_addr constant [10 x ptr] [ptr @.str, ptr @.str.1, ptr @.str.2, ptr null, ptr null, ptr null, ptr null, ptr null, ptr null, ptr null], align 16
@.str.3 = private unnamed_addr constant [9 x i8] c"    PIN \00", align 1
@.str.4 = private unnamed_addr constant [5 x i8] c"%9s \00", align 1
@.str.5 = private unnamed_addr constant [6 x i8] c"%10s \00", align 1
@.str.6 = private unnamed_addr constant [5 x i8] c"%6d \00", align 1
@.str.7 = private unnamed_addr constant [7 x i8] c"%6.2f \00", align 1
@.str.8 = private unnamed_addr constant [6 x i8] c"%6.2f\00", align 1
@.str.9 = private unnamed_addr constant [2 x i8] c"\0A\00", align 1

; Function Attrs: nounwind uwtable
define void @Amap_LibWritePin(ptr noundef %0, ptr noundef %1) #0 {
  %3 = alloca ptr, align 8
  %4 = alloca ptr, align 8
  %5 = alloca [10 x ptr], align 16
  store ptr %0, ptr %3, align 8
  store ptr %1, ptr %4, align 8
  call void @llvm.memcpy.p0.p0.i64(ptr align 16 %5, ptr align 16 @__const.Amap_LibWritePin.pPhaseNames, i64 80, i1 false)
  %6 = load ptr, ptr %3, align 8
  %7 = call i32 (ptr, ptr, ...) @fprintf(ptr noundef %6, ptr noundef @.str.3) #10
  %8 = load ptr, ptr %3, align 8
  %9 = load ptr, ptr %4, align 8
  %10 = getelementptr inbounds %struct.Amap_Pin_t_, ptr %9, i32 0, i32 0
  %11 = load ptr, ptr %10, align 8
  %12 = call i32 (ptr, ptr, ...) @fprintf(ptr noundef %8, ptr noundef @.str.4, ptr noundef %11) #10
  %13 = load ptr, ptr %3, align 8
  %14 = load ptr, ptr %4, align 8
  %15 = getelementptr inbounds %struct.Amap_Pin_t_, ptr %14, i32 0, i32 1
  %16 = load i32, ptr %15, align 8
  %17 = sext i32 %16 to i64
  %18 = getelementptr inbounds [10 x ptr], ptr %5, i64 0, i64 %17
  %19 = load ptr, ptr %18, align 8
  %20 = call i32 (ptr, ptr, ...) @fprintf(ptr noundef %13, ptr noundef @.str.5, ptr noundef %19) #10
  %21 = load ptr, ptr %3, align 8
  %22 = load ptr, ptr %4, align 8
  %23 = getelementptr inbounds %struct.Amap_Pin_t_, ptr %22, i32 0, i32 2
  %24 = load double, ptr %23, align 8
  %25 = fptosi double %24 to i32
  %26 = call i32 (ptr, ptr, ...) @fprintf(ptr noundef %21, ptr noundef @.str.6, i32 noundef %25) #10
  %27 = load ptr, ptr %3, align 8
  %28 = load ptr, ptr %4, align 8
  %29 = getelementptr inbounds %struct.Amap_Pin_t_, ptr %28, i32 0, i32 3
  %30 = load double, ptr %29, align 8
  %31 = fptosi double %30 to i32
  %32 = call i32 (ptr, ptr, ...) @fprintf(ptr noundef %27, ptr noundef @.str.6, i32 noundef %31) #10
  %33 = load ptr, ptr %3, align 8
  %34 = load ptr, ptr %4, align 8
  %35 = getelementptr inbounds %struct.Amap_Pin_t_, ptr %34, i32 0, i32 4
  %36 = load double, ptr %35, align 8
  %37 = call i32 (ptr, ptr, ...) @fprintf(ptr noundef %33, ptr noundef @.str.7, double noundef %36) #10
  %38 = load ptr, ptr %3, align 8
  %39 = load ptr, ptr %4, align 8
  %40 = getelementptr inbounds %struct.Amap_Pin_t_, ptr %39, i32 0, i32 5
  %41 = load double, ptr %40, align 8
  %42 = call i32 (ptr, ptr, ...) @fprintf(ptr noundef %38, ptr noundef @.str.7, double noundef %41) #10
  %43 = load ptr, ptr %3, align 8
  %44 = load ptr, ptr %4, align 8
  %45 = getelementptr inbounds %struct.Amap_Pin_t_, ptr %44, i32 0, i32 6
  %46 = load double, ptr %45, align 8
  %47 = call i32 (ptr, ptr, ...) @fprintf(ptr noundef %43, ptr noundef @.str.7, double noundef %46) #10
  %48 = load ptr, ptr %3, align 8
  %49 = load ptr, ptr %4, align 8
  %50 = getelementptr inbounds %struct.Amap_Pin_t_, ptr %49, i32 0, i32 7
  %51 = load double, ptr %50, align 8
  %52 = call i32 (ptr, ptr, ...) @fprintf(ptr noundef %48, ptr noundef @.str.8, double noundef %51) #10
  %53 = load ptr, ptr %3, align 8
  %54 = call i32 (ptr, ptr, ...) @fprintf(ptr noundef %53, ptr noundef @.str.9) #10
  ret void
}