; Function Attrs: nofree nounwind uwtable
define void @Amap_LibWritePin(ptr noundef captures(none) %0, ptr noundef readonly captures(none) %1) local_unnamed_addr #5 {
  %3 = tail call i64 @fwrite(ptr nonnull @.str.3, i64 8, i64 1, ptr %0)
  %4 = load ptr, ptr %1, align 8
  %5 = tail call i32 (ptr, ptr, ...) @fprintf(ptr noundef %0, ptr noundef nonnull @.str.4, ptr noundef %4) #22
  %6 = getelementptr inbounds nuw i8, ptr %1, i64 8
  %7 = load i32, ptr %6, align 8
  %8 = sext i32 %7 to i64
  %9 = getelementptr inbounds [10 x ptr], ptr @__const.Amap_LibWritePin.pPhaseNames, i64 0, i64 %8
  %10 = load ptr, ptr %9, align 8
  %11 = tail call i32 (ptr, ptr, ...) @fprintf(ptr noundef %0, ptr noundef nonnull @.str.5, ptr noundef %10) #22
  %12 = getelementptr inbounds nuw i8, ptr %1, i64 16
  %13 = load double, ptr %12, align 8
  %14 = fptosi double %13 to i32
  %15 = tail call i32 (ptr, ptr, ...) @fprintf(ptr noundef %0, ptr noundef nonnull @.str.6, i32 noundef %14) #22
  %16 = getelementptr inbounds nuw i8, ptr %1, i64 24
  %17 = load double, ptr %16, align 8
  %18 = fptosi double %17 to i32
  %19 = tail call i32 (ptr, ptr, ...) @fprintf(ptr noundef %0, ptr noundef nonnull @.str.6, i32 noundef %18) #22
  %20 = getelementptr inbounds nuw i8, ptr %1, i64 32
  %21 = load double, ptr %20, align 8
  %22 = tail call i32 (ptr, ptr, ...) @fprintf(ptr noundef %0, ptr noundef nonnull @.str.7, double noundef %21) #22
  %23 = getelementptr inbounds nuw i8, ptr %1, i64 40
  %24 = load double, ptr %23, align 8
  %25 = tail call i32 (ptr, ptr, ...) @fprintf(ptr noundef %0, ptr noundef nonnull @.str.7, double noundef %24) #22
  %26 = getelementptr inbounds nuw i8, ptr %1, i64 48
  %27 = load double, ptr %26, align 8
  %28 = tail call i32 (ptr, ptr, ...) @fprintf(ptr noundef %0, ptr noundef nonnull @.str.7, double noundef %27) #22
  %29 = getelementptr inbounds nuw i8, ptr %1, i64 56
  %30 = load double, ptr %29, align 8
  %31 = tail call i32 (ptr, ptr, ...) @fprintf(ptr noundef %0, ptr noundef nonnull @.str.8, double noundef %30) #22
  %fputc = tail call i32 @fputc(i32 10, ptr %0)
  ret void
}